; Function Attrs: nounwind uwtable
define noalias nonnull ptr @l_Lean_throwMaxRecDepthAt___at_Lean_Meta_IndPredBelow_mkCtorType_checkCount___spec__17___rarg(ptr noundef %0, ptr noundef readnone captures(none) %1, ptr noundef readnone captures(none) %2, ptr noundef readnone captures(none) %3, ptr noundef readnone captures(none) %4, ptr noundef %5) local_unnamed_addr #0 {
  %7 = load ptr, ptr @l_Lean_throwMaxRecDepthAt___at_Lean_Meta_IndPredBelow_mkCtorType_checkCount___spec__17___rarg___closed__6, align 8, !tbaa !4
  tail call void @lean_inc_heartbeat() #6
  %8 = tail call noalias ptr @mi_malloc_small(i64 noundef 24) #6
  %9 = icmp eq ptr %8, null
  br i1 %9, label %10, label %lean_alloc_ctor.exit

10:                                               ; preds = %6
  tail call void @lean_internal_panic_out_of_memory() #7
  unreachable

lean_alloc_ctor.exit:                             ; preds = %6
  %11 = getelementptr inbounds nuw i8, ptr %8, i64 4
  store i32 1, ptr %8, align 4, !tbaa !12
  store i32 131096, ptr %11, align 4
  %12 = getelementptr inbounds nuw i8, ptr %8, i64 8
  store ptr %0, ptr %12, align 8, !tbaa !4
  %13 = getelementptr inbounds nuw i8, ptr %8, i64 16
  store ptr %7, ptr %13, align 8, !tbaa !4
  tail call void @lean_inc_heartbeat() #6
  %14 = tail call noalias ptr @mi_malloc_small(i64 noundef 24) #6
  %15 = icmp eq ptr %14, null
  br i1 %15, label %16, label %lean_alloc_ctor.exit9

16:                                               ; preds = %lean_alloc_ctor.exit
  tail call void @lean_internal_panic_out_of_memory() #7
  unreachable

lean_alloc_ctor.exit9:                            ; preds = %lean_alloc_ctor.exit
  %17 = getelementptr inbounds nuw i8, ptr %14, i64 4
  store i32 1, ptr %14, align 4, !tbaa !12
  store i32 16908312, ptr %17, align 4
  %18 = getelementptr inbounds nuw i8, ptr %14, i64 8
  store ptr %8, ptr %18, align 8, !tbaa !4
  %19 = getelementptr inbounds nuw i8, ptr %14, i64 16
  store ptr %5, ptr %19, align 8, !tbaa !4
  ret ptr %14
}